; Function Attrs: mustprogress uwtable
define void @_ZN2cv4gapi12boundingRectERKNS_6GArrayINS_6Point_IiEEEE(ptr dead_on_unwind noalias writable sret(%"class.cv::GOpaque.12") align 8 %0, ptr nocapture noundef nonnull readonly align 8 dereferenceable(32) %1) local_unnamed_addr #3 personality ptr @__gxx_personality_v0 {
  %3 = alloca %"class.cv::GArray.13", align 8
  %4 = load ptr, ptr %1, align 8
  store ptr %4, ptr %3, align 8
  %5 = getelementptr inbounds i8, ptr %3, i64 8
  %6 = getelementptr inbounds i8, ptr %1, i64 8
  %7 = load ptr, ptr %6, align 8
  store ptr %7, ptr %5, align 8
  %.not.i.i.i.i.i = icmp eq ptr %7, null
  br i1 %.not.i.i.i.i.i, label %_ZNSt10shared_ptrIN2cv7GOriginEEC2ERKS2_.exit.i.i, label %8

8:                                                ; preds = %2
  %9 = getelementptr inbounds i8, ptr %7, i64 8
  %10 = load i8, ptr @__libc_single_threaded, align 1
  %.not.i.i.i.i.i.i = icmp eq i8 %10, 0
  br i1 %.not.i.i.i.i.i.i, label %14, label %11

11:                                               ; preds = %8
  %12 = load i32, ptr %9, align 4
  %13 = add nsw i32 %12, 1
  store i32 %13, ptr %9, align 4
  br label %_ZNSt10shared_ptrIN2cv7GOriginEEC2ERKS2_.exit.i.i

14:                                               ; preds = %8
  %15 = atomicrmw volatile add ptr %9, i32 1 acq_rel, align 4
  br label %_ZNSt10shared_ptrIN2cv7GOriginEEC2ERKS2_.exit.i.i

_ZNSt10shared_ptrIN2cv7GOriginEEC2ERKS2_.exit.i.i: ; preds = %14, %11, %2
  %16 = getelementptr inbounds i8, ptr %3, i64 16
  %17 = getelementptr inbounds i8, ptr %1, i64 16
  %18 = load ptr, ptr %17, align 8
  store ptr %18, ptr %16, align 8
  %19 = getelementptr inbounds i8, ptr %3, i64 24
  %20 = getelementptr inbounds i8, ptr %1, i64 24
  %21 = load ptr, ptr %20, align 8
  store ptr %21, ptr %19, align 8
  %.not.i.i.i3.i.i = icmp eq ptr %21, null
  br i1 %.not.i.i.i3.i.i, label %_ZN2cv6GArrayINS_6Point_IiEEEC2ERKS3_.exit, label %22

22:                                               ; preds = %_ZNSt10shared_ptrIN2cv7GOriginEEC2ERKS2_.exit.i.i
  %23 = getelementptr inbounds i8, ptr %21, i64 8
  %24 = load i8, ptr @__libc_single_threaded, align 1
  %.not.i.i.i.i4.i.i = icmp eq i8 %24, 0
  br i1 %.not.i.i.i.i4.i.i, label %28, label %25

25:                                               ; preds = %22
  %26 = load i32, ptr %23, align 4
  %27 = add nsw i32 %26, 1
  store i32 %27, ptr %23, align 4
  br label %_ZN2cv6GArrayINS_6Point_IiEEEC2ERKS3_.exit

28:                                               ; preds = %22
  %29 = atomicrmw volatile add ptr %23, i32 1 acq_rel, align 4
  br label %_ZN2cv6GArrayINS_6Point_IiEEEC2ERKS3_.exit

_ZN2cv6GArrayINS_6Point_IiEEEC2ERKS3_.exit:       ; preds = %_ZNSt10shared_ptrIN2cv7GOriginEEC2ERKS2_.exit.i.i, %25, %28
  invoke void @_ZN2cv11GKernelTypeINS_4gapi7imgproc22GBoundingRectVector32SESt8functionIFNS_7GOpaqueINS_5Rect_IiEEEENS_6GArrayINS_6Point_IiEEEEEEE2onESC_(ptr dead_on_unwind writable sret(%"class.cv::GOpaque.12") align 8 %0, ptr noundef nonnull %3)
          to label %30 unwind label %31

30:                                               ; preds = %_ZN2cv6GArrayINS_6Point_IiEEEC2ERKS3_.exit
  call void @_ZN2cv6detail7GArrayUD2Ev(ptr noundef nonnull align 8 dereferenceable(32) %3) #18
  ret void

31:                                               ; preds = %_ZN2cv6GArrayINS_6Point_IiEEEC2ERKS3_.exit
  %32 = landingpad { ptr, i32 }
          cleanup
  call void @_ZN2cv6detail7GArrayUD2Ev(ptr noundef nonnull align 8 dereferenceable(32) %3) #18
  resume { ptr, i32 } %32
}